; Function Attrs: nounwind uwtable
define range(i32 -2147483648, 2) i32 @ff_asf_handle_byte_array(ptr noundef %0, ptr noundef readonly captures(none) %1, i32 noundef %2) local_unnamed_addr #0 {
  %4 = alloca ptr, align 8
  %5 = alloca [64 x i8], align 16
  %6 = alloca ptr, align 8
  %7 = tail call i32 @strcmp(ptr noundef nonnull dereferenceable(1) %1, ptr noundef nonnull dereferenceable(11) @.str.31) #4
  %.not = icmp eq i32 %7, 0
  br i1 %.not, label %8, label %76

8:                                                ; preds = %3
  call void @llvm.lifetime.start.p0(i64 64, ptr nonnull %5) #5
  call void @llvm.lifetime.start.p0(i64 8, ptr nonnull %6) #5
  %9 = icmp slt i32 %2, 9
  br i1 %9, label %10, label %11

10:                                               ; preds = %8
  tail call void (ptr, i32, ptr, ...) @av_log(ptr noundef %0, i32 noundef 16, ptr noundef nonnull @.str.33, i32 noundef %2) #5
  br label %asf_read_picture.exit

11:                                               ; preds = %8
  %12 = getelementptr inbounds nuw i8, ptr %0, i64 32
  %13 = load ptr, ptr %12, align 8, !tbaa !4
  %14 = tail call i32 @avio_r8(ptr noundef %13) #5
  %15 = icmp ugt i32 %14, 20
  br i1 %15, label %16, label %17

16:                                               ; preds = %11
  tail call void (ptr, i32, ptr, ...) @av_log(ptr noundef nonnull %0, i32 noundef 24, ptr noundef nonnull @.str.34, i32 noundef %14) #5
  br label %17

17:                                               ; preds = %16, %11
  %.050.i = phi i32 [ 0, %16 ], [ %14, %11 ]
  %18 = load ptr, ptr %12, align 8, !tbaa !4
  %19 = tail call i32 @avio_rl32(ptr noundef %18) #5
  %20 = add nsw i32 %2, -5
  %21 = load ptr, ptr %12, align 8, !tbaa !4
  %22 = call i32 @avio_get_str16le(ptr noundef %21, i32 noundef %20, ptr noundef nonnull %5, i32 noundef 64) #5
  %23 = sub nsw i32 %20, %22
  %24 = load i32, ptr getelementptr inbounds nuw (i8, ptr @ff_id3v2_mime_tags, i64 32), align 4, !tbaa !24
  %.not66.i = icmp eq i32 %24, 0
  br i1 %.not66.i, label %._crit_edge.i, label %.lr.ph.i.preheader

.lr.ph.i.preheader:                               ; preds = %17
  %25 = call i32 @strncmp(ptr noundef nonnull dereferenceable(1) @ff_id3v2_mime_tags, ptr noundef nonnull dereferenceable(1) %5, i64 noundef 64) #4
  %.not60.i9 = icmp eq i32 %25, 0
  br i1 %.not60.i9, label %.lr.ph.i._crit_edge, label %.lr.ph

.lr.ph:                                           ; preds = %.lr.ph.i.preheader, %.lr.ph.i
  %.05167.i10 = phi ptr [ %28, %.lr.ph.i ], [ @ff_id3v2_mime_tags, %.lr.ph.i.preheader ]
  %26 = getelementptr inbounds nuw i8, ptr %.05167.i10, i64 68
  %27 = load i32, ptr %26, align 4, !tbaa !24
  %.not.i = icmp eq i32 %27, 0
  br i1 %.not.i, label %._crit_edge.i, label %.lr.ph.i, !llvm.loop !26

.lr.ph.i:                                         ; preds = %.lr.ph
  %28 = getelementptr inbounds nuw i8, ptr %.05167.i10, i64 36
  %29 = call i32 @strncmp(ptr noundef nonnull dereferenceable(1) %28, ptr noundef nonnull dereferenceable(1) %5, i64 noundef 64) #4
  %.not60.i = icmp eq i32 %29, 0
  br i1 %.not60.i, label %.lr.ph.i._crit_edge, label %.lr.ph, !llvm.loop !26

._crit_edge.i:                                    ; preds = %.lr.ph, %17
  call void (ptr, i32, ptr, ...) @av_log(ptr noundef %0, i32 noundef 16, ptr noundef nonnull @.str.35, ptr noundef nonnull %5) #5
  br label %asf_read_picture.exit

.lr.ph.i._crit_edge:                              ; preds = %.lr.ph.i, %.lr.ph.i.preheader
  %.lcssa = phi i32 [ %24, %.lr.ph.i.preheader ], [ %27, %.lr.ph.i ]
  %.not61.i = icmp slt i32 %19, %23
  br i1 %.not61.i, label %30, label %35

30:                                               ; preds = %.lr.ph.i._crit_edge
  %31 = sext i32 %23 to i64
  %32 = sext i32 %19 to i64
  %33 = sub nsw i64 %31, %32
  %34 = icmp sgt i64 %33, 1073741823
  br i1 %34, label %35, label %36

35:                                               ; preds = %30, %.lr.ph.i._crit_edge
  call void (ptr, i32, ptr, ...) @av_log(ptr noundef %0, i32 noundef 16, ptr noundef nonnull @.str.36, i32 noundef %19, i32 noundef %23) #5
  br label %asf_read_picture.exit

36:                                               ; preds = %30
  %37 = sub nsw i32 %23, %19
  %38 = shl nsw i32 %37, 1
  %39 = or disjoint i32 %38, 1
  %40 = sext i32 %39 to i64
  %41 = call noalias ptr @av_malloc(i64 noundef %40) #5
  store ptr %41, ptr %6, align 8, !tbaa !28
  %.not62.i = icmp eq ptr %41, null
  br i1 %.not62.i, label %asf_read_picture.exit, label %42

42:                                               ; preds = %36
  %43 = load ptr, ptr %12, align 8, !tbaa !4
  %44 = call i32 @avio_get_str16le(ptr noundef %43, i32 noundef %37, ptr noundef nonnull %41, i32 noundef %39) #5
  %45 = load ptr, ptr %12, align 8, !tbaa !4
  %46 = call i32 @ff_add_attached_pic(ptr noundef %0, ptr noundef null, ptr noundef %45, ptr noundef null, i32 noundef %19) #5
  %47 = icmp slt i32 %46, 0
  br i1 %47, label %75, label %48

48:                                               ; preds = %42
  %49 = getelementptr inbounds nuw i8, ptr %0, i64 48
  %50 = load ptr, ptr %49, align 8, !tbaa !29
  %51 = getelementptr inbounds nuw i8, ptr %0, i64 44
  %52 = load i32, ptr %51, align 4, !tbaa !30
  %53 = add i32 %52, -1
  %54 = zext i32 %53 to i64
  %55 = getelementptr inbounds nuw ptr, ptr %50, i64 %54
  %56 = load ptr, ptr %55, align 8, !tbaa !31
  %57 = getelementptr inbounds nuw i8, ptr %56, i64 16
  %58 = load ptr, ptr %57, align 8, !tbaa !33
  %59 = getelementptr inbounds nuw i8, ptr %58, i64 4
  store i32 %.lcssa, ptr %59, align 4, !tbaa !40
  %60 = load i8, ptr %41, align 1, !tbaa !43
  %.not63.i = icmp eq i8 %60, 0
  br i1 %.not63.i, label %66, label %61

61:                                               ; preds = %48
  %62 = getelementptr inbounds nuw i8, ptr %56, i64 80
  %63 = call i32 @av_dict_set(ptr noundef nonnull %62, ptr noundef nonnull @.str.37, ptr noundef nonnull %41, i32 noundef 8) #5
  %64 = icmp slt i32 %63, 0
  br i1 %64, label %65, label %67

65:                                               ; preds = %61
  call void (ptr, i32, ptr, ...) @av_log(ptr noundef nonnull %0, i32 noundef 24, ptr noundef nonnull @.str.38) #5
  br label %67

66:                                               ; preds = %48
  call void @av_freep(ptr noundef nonnull %6) #5
  br label %67

67:                                               ; preds = %66, %65, %61
  %68 = getelementptr inbounds nuw i8, ptr %56, i64 80
  %69 = zext nneg i32 %.050.i to i64
  %70 = getelementptr inbounds nuw [21 x ptr], ptr @ff_id3v2_picture_types, i64 0, i64 %69
  %71 = load ptr, ptr %70, align 8, !tbaa !28
  %72 = call i32 @av_dict_set(ptr noundef nonnull %68, ptr noundef nonnull @.str.7, ptr noundef %71, i32 noundef 0) #5
  %73 = icmp slt i32 %72, 0
  br i1 %73, label %74, label %asf_read_picture.exit

74:                                               ; preds = %67
  call void (ptr, i32, ptr, ...) @av_log(ptr noundef nonnull %0, i32 noundef 24, ptr noundef nonnull @.str.38) #5
  br label %asf_read_picture.exit

75:                                               ; preds = %42
  call void @av_freep(ptr noundef nonnull %6) #5
  br label %asf_read_picture.exit

asf_read_picture.exit:                            ; preds = %10, %._crit_edge.i, %35, %36, %67, %74, %75
  %.0.i = phi i32 [ -1094995529, %10 ], [ 0, %._crit_edge.i ], [ -1094995529, %35 ], [ %46, %75 ], [ -12, %36 ], [ 0, %74 ], [ 0, %67 ]
  call void @llvm.lifetime.end.p0(i64 8, ptr nonnull %6) #5
  call void @llvm.lifetime.end.p0(i64 64, ptr nonnull %5) #5
  br label %84

76:                                               ; preds = %3
  %77 = tail call i32 @strcmp(ptr noundef nonnull dereferenceable(1) %1, ptr noundef nonnull dereferenceable(4) @.str.32) #4
  %.not6 = icmp eq i32 %77, 0
  br i1 %.not6, label %78, label %84

78:                                               ; preds = %76
  call void @llvm.lifetime.start.p0(i64 8, ptr nonnull %4) #5
  call void @ff_id3v2_read(ptr noundef %0, ptr noundef nonnull @.str.32, ptr noundef nonnull %4, i32 noundef %2) #5
  %79 = load ptr, ptr %4, align 8, !tbaa !44
  %.not.i7 = icmp eq ptr %79, null
  br i1 %.not.i7, label %get_id3_tag.exit, label %80

80:                                               ; preds = %78
  %81 = call i32 @ff_id3v2_parse_apic(ptr noundef %0, ptr noundef nonnull %79) #5
  %82 = load ptr, ptr %4, align 8, !tbaa !44
  %83 = call i32 @ff_id3v2_parse_chapters(ptr noundef %0, ptr noundef %82) #5
  call void @ff_id3v2_free_extra_meta(ptr noundef nonnull %4) #5
  br label %get_id3_tag.exit

get_id3_tag.exit:                                 ; preds = %78, %80
  call void @llvm.lifetime.end.p0(i64 8, ptr nonnull %4) #5
  br label %84

84:                                               ; preds = %76, %get_id3_tag.exit, %asf_read_picture.exit
  %.0 = phi i32 [ 0, %get_id3_tag.exit ], [ %.0.i, %asf_read_picture.exit ], [ 1, %76 ]
  ret i32 %.0
}